; Function Attrs: null_pointer_is_valid sspstrong uwtable
define internal noundef zeroext i1 @netxray_dump_finish_1_1(ptr noundef %0, ptr noundef %1, ptr readnone captures(none) %2) #0 {
  %4 = alloca [124 x i8], align 16
  call void @llvm.lifetime.start.p0(i64 124, ptr nonnull %4) #8
  %5 = getelementptr inbounds nuw i8, ptr %0, i64 40
  %6 = load ptr, ptr %5, align 8
  %7 = tail call i64 @wtap_dump_file_tell(ptr noundef %0, ptr noundef %1)
  %8 = icmp eq i64 %7, -1
  br i1 %8, label %34, label %9

9:                                                ; preds = %3
  %10 = tail call i64 @wtap_dump_file_seek(ptr noundef %0, i64 noundef 0, i32 noundef 0, ptr noundef %1)
  %11 = icmp eq i64 %10, -1
  br i1 %11, label %34, label %12

12:                                               ; preds = %9
  %13 = tail call zeroext i1 @wtap_dump_file_write(ptr noundef %0, ptr noundef nonnull @netxray_magic, i64 noundef 4, ptr noundef %1)
  br i1 %13, label %14, label %34

14:                                               ; preds = %12
  %15 = getelementptr inbounds nuw i8, ptr %6, i64 4
  %16 = load i32, ptr %15, align 4
  %17 = getelementptr inbounds nuw i8, ptr %6, i64 8
  %18 = load i32, ptr %17, align 4
  %19 = trunc i64 %7 to i32
  %20 = getelementptr inbounds nuw i8, ptr %0, i64 16
  %21 = load i32, ptr %20, align 8
  br label %23

22:                                               ; preds = %23
  %indvars.iv.next.i = add nuw nsw i64 %indvars.iv.i, 1
  %exitcond.not.i = icmp eq i64 %indvars.iv.next.i, 4
  br i1 %exitcond.not.i, label %wtap_encap_to_netxray_1_1_encap.exit, label %23, !llvm.loop !8

23:                                               ; preds = %22, %14
  %indvars.iv.i = phi i64 [ 0, %14 ], [ %indvars.iv.next.i, %22 ]
  %24 = getelementptr [4 x %struct.anon.3], ptr @wtap_encap_1_1, i64 0, i64 %indvars.iv.i
  %25 = load i32, ptr %24, align 8
  %26 = icmp eq i32 %21, %25
  br i1 %26, label %27, label %22

27:                                               ; preds = %23
  %28 = getelementptr [4 x %struct.anon.3], ptr @wtap_encap_1_1, i64 0, i64 %indvars.iv.i, i32 1
  %29 = load i32, ptr %28, align 4
  %30 = trunc i32 %29 to i8
  br label %wtap_encap_to_netxray_1_1_encap.exit

wtap_encap_to_netxray_1_1_encap.exit:             ; preds = %22, %27
  %.06.i = phi i8 [ %30, %27 ], [ -1, %22 ]
  store i64 13563786668617776, ptr %4, align 16
  %.sroa.5.0..sroa_idx = getelementptr inbounds nuw i8, ptr %4, i64 8
  store i32 %16, ptr %.sroa.5.0..sroa_idx, align 8
  %.sroa.6.0..sroa_idx = getelementptr inbounds nuw i8, ptr %4, i64 12
  store i32 %18, ptr %.sroa.6.0..sroa_idx, align 4
  %.sroa.7.0..sroa_idx = getelementptr inbounds nuw i8, ptr %4, i64 16
  store i32 0, ptr %.sroa.7.0..sroa_idx, align 16
  %.sroa.718.0..sroa_idx = getelementptr inbounds nuw i8, ptr %4, i64 20
  store i32 128, ptr %.sroa.718.0..sroa_idx, align 4
  %.sroa.8.0..sroa_idx = getelementptr inbounds nuw i8, ptr %4, i64 24
  store i32 %19, ptr %.sroa.8.0..sroa_idx, align 8
  %.sroa.9.0..sroa_idx = getelementptr inbounds nuw i8, ptr %4, i64 28
  call void @llvm.memset.p0.i64(ptr noundef nonnull align 4 dereferenceable(12) %.sroa.9.0..sroa_idx, i8 0, i64 12, i1 false)
  %.sroa.919.0..sroa_idx = getelementptr inbounds nuw i8, ptr %4, i64 40
  store i8 %.06.i, ptr %.sroa.919.0..sroa_idx, align 8
  %.sroa.10.0..sroa_idx = getelementptr inbounds nuw i8, ptr %4, i64 41
  call void @llvm.memset.p0.i64(ptr noundef nonnull align 1 dereferenceable(83) %.sroa.10.0..sroa_idx, i8 0, i64 83, i1 false)
  %31 = call zeroext i1 @wtap_dump_file_write(ptr noundef %0, ptr noundef nonnull %4, i64 noundef 124, ptr noundef %1)
  br i1 %31, label %32, label %34

32:                                               ; preds = %wtap_encap_to_netxray_1_1_encap.exit
  %33 = getelementptr inbounds nuw i8, ptr %0, i64 32
  store i64 %7, ptr %33, align 8
  br label %34

34:                                               ; preds = %wtap_encap_to_netxray_1_1_encap.exit, %12, %9, %3, %32
  %.0 = phi i1 [ true, %32 ], [ false, %3 ], [ false, %9 ], [ false, %12 ], [ false, %wtap_encap_to_netxray_1_1_encap.exit ]
  call void @llvm.lifetime.end.p0(i64 124, ptr nonnull %4) #8
  ret i1 %.0
}